target datalayout = "e-m:e-p270:32:32-p271:32:32-p272:64:64-i64:64-i128:128-f80:128-n8:16:32:64-S128"
target triple = "x86_64-pc-linux-gnu"

@thefile = internal global i64 -1, align 8

; Function Attrs: nounwind uwtable
define internal i32 @ref_path_table_cmp(ptr noundef %0, ptr noundef %1) #0 {
  %3 = alloca ptr, align 8
  %4 = alloca ptr, align 8
  %5 = alloca ptr, align 8
  %6 = alloca ptr, align 8
  %7 = alloca i32, align 4
  store ptr %0, ptr %3, align 8
  store ptr %1, ptr %4, align 8
  %8 = load ptr, ptr %3, align 8
  store ptr %8, ptr %5, align 8
  %9 = load ptr, ptr %4, align 8
  store ptr %9, ptr %6, align 8
  store i32 0, ptr %7, align 4
  %10 = load i64, ptr @thefile, align 8
  %11 = icmp sgt i64 %10, 0
  br i1 %11, label %12, label %17

12:                                               ; preds = %2
  %13 = load i64, ptr @thefile, align 8
  %14 = load ptr, ptr %5, align 8
  %15 = load ptr, ptr %6, align 8
  %16 = call i32 @H5Otoken_cmp(i64 noundef %13, ptr noundef %14, ptr noundef %15, ptr noundef %7)
  br label %21

17:                                               ; preds = %2
  %18 = load ptr, ptr %5, align 8
  %19 = load ptr, ptr %6, align 8
  %20 = call i32 @memcmp(ptr noundef %18, ptr noundef %19, i64 noundef 16) #7
  store i32 %20, ptr %7, align 4
  br label %21

21:                                               ; preds = %17, %12
  %22 = load i32, ptr %7, align 4
  ret i32 %22
}