; Function Attrs: nounwind uwtable
define internal i32 @ref_path_table_cmp(ptr noundef %0, ptr noundef %1) #0 {
  %3 = alloca i32, align 4
  store i32 0, ptr %3, align 4
  %4 = load i64, ptr @thefile, align 8
  %5 = icmp sgt i64 %4, 0
  br i1 %5, label %6, label %8

6:                                                ; preds = %2
  %7 = call i32 @H5Otoken_cmp(i64 noundef %4, ptr noundef %0, ptr noundef %1, ptr noundef nonnull %3) #10
  %.pre = load i32, ptr %3, align 4
  br label %10

8:                                                ; preds = %2
  %9 = tail call i32 @memcmp(ptr noundef nonnull dereferenceable(16) %0, ptr noundef nonnull dereferenceable(16) %1, i64 noundef 16) #12
  br label %10

10:                                               ; preds = %8, %6
  %11 = phi i32 [ %9, %8 ], [ %.pre, %6 ]
  ret i32 %11
}